; Function Attrs: nounwind uwtable
define nonnull ptr @l_Lake_Toml_RBDict_beq___rarg___boxed(ptr noundef %0, ptr noundef %1, ptr noundef %2) #0 {
  %4 = getelementptr inbounds nuw i8, ptr %1, i64 8
  %5 = load ptr, ptr %4, align 8, !tbaa !4
  %6 = getelementptr inbounds nuw i8, ptr %2, i64 8
  %7 = load ptr, ptr %6, align 8, !tbaa !4
  %8 = getelementptr i8, ptr %5, i64 8
  %.val22.i = load i64, ptr %8, align 8, !tbaa !14
  %9 = shl i64 %.val22.i, 1
  %10 = getelementptr i8, ptr %7, i64 8
  %.val.i = load i64, ptr %10, align 8, !tbaa !14
  %11 = shl i64 %.val.i, 1
  %.not.i9 = icmp eq i64 %9, %11
  br i1 %.not.i9, label %21, label %lean_dec.exit16.i

lean_dec.exit16.i:                                ; preds = %3
  %12 = ptrtoint ptr %0 to i64
  %13 = and i64 %12, 1
  %.not23.i = icmp eq i64 %13, 0
  br i1 %.not23.i, label %14, label %l_Lake_Toml_RBDict_beq___rarg.exit

14:                                               ; preds = %lean_dec.exit16.i
  %15 = load i32, ptr %0, align 4, !tbaa !8
  %16 = icmp sgt i32 %15, 1
  br i1 %16, label %17, label %19, !prof !13

17:                                               ; preds = %14
  %18 = add nsw i32 %15, -1
  store i32 %18, ptr %0, align 4, !tbaa !8
  br label %l_Lake_Toml_RBDict_beq___rarg.exit

19:                                               ; preds = %14
  %.not.i20.i = icmp eq i32 %15, 0
  br i1 %.not.i20.i, label %l_Lake_Toml_RBDict_beq___rarg.exit, label %20

20:                                               ; preds = %19
  tail call void @lean_dec_ref_cold(ptr noundef nonnull %0) #5
  br label %l_Lake_Toml_RBDict_beq___rarg.exit

21:                                               ; preds = %3
  %22 = or disjoint i64 %9, 1
  %23 = inttoptr i64 %22 to ptr
  %24 = tail call zeroext i8 @l_Array_isEqvAux___rarg(ptr noundef nonnull %5, ptr noundef nonnull %7, ptr noundef nonnull inttoptr (i64 1 to ptr), ptr noundef %0, ptr noundef nonnull %23, ptr noundef nonnull inttoptr (i64 1 to ptr)) #5
  %25 = zext i8 %24 to i64
  %26 = shl nuw nsw i64 %25, 1
  %27 = or disjoint i64 %26, 1
  br label %l_Lake_Toml_RBDict_beq___rarg.exit

l_Lake_Toml_RBDict_beq___rarg.exit:               ; preds = %lean_dec.exit16.i, %17, %19, %20, %21
  %.0.i = phi i64 [ %27, %21 ], [ 1, %20 ], [ 1, %19 ], [ 1, %17 ], [ 1, %lean_dec.exit16.i ]
  %28 = ptrtoint ptr %2 to i64
  %29 = and i64 %28, 1
  %.not = icmp eq i64 %29, 0
  br i1 %.not, label %30, label %lean_dec.exit6

30:                                               ; preds = %l_Lake_Toml_RBDict_beq___rarg.exit
  %31 = load i32, ptr %2, align 4, !tbaa !8
  %32 = icmp sgt i32 %31, 1
  br i1 %32, label %33, label %35, !prof !13

33:                                               ; preds = %30
  %34 = add nsw i32 %31, -1
  store i32 %34, ptr %2, align 4, !tbaa !8
  br label %lean_dec.exit6

35:                                               ; preds = %30
  %.not.i = icmp eq i32 %31, 0
  br i1 %.not.i, label %lean_dec.exit6, label %36

36:                                               ; preds = %35
  tail call void @lean_dec_ref_cold(ptr noundef nonnull %2) #5
  br label %lean_dec.exit6

lean_dec.exit6:                                   ; preds = %36, %35, %33, %l_Lake_Toml_RBDict_beq___rarg.exit
  %37 = ptrtoint ptr %1 to i64
  %38 = and i64 %37, 1
  %.not10 = icmp eq i64 %38, 0
  br i1 %.not10, label %39, label %lean_dec.exit

39:                                               ; preds = %lean_dec.exit6
  %40 = load i32, ptr %1, align 4, !tbaa !8
  %41 = icmp sgt i32 %40, 1
  br i1 %41, label %42, label %44, !prof !13

42:                                               ; preds = %39
  %43 = add nsw i32 %40, -1
  store i32 %43, ptr %1, align 4, !tbaa !8
  br label %lean_dec.exit

44:                                               ; preds = %39
  %.not.i7 = icmp eq i32 %40, 0
  br i1 %.not.i7, label %lean_dec.exit, label %45

45:                                               ; preds = %44
  tail call void @lean_dec_ref_cold(ptr noundef nonnull %1) #5
  br label %lean_dec.exit

lean_dec.exit:                                    ; preds = %45, %44, %42, %lean_dec.exit6
  %46 = inttoptr i64 %.0.i to ptr
  ret ptr %46
}